target datalayout = "e-m:e-p270:32:32-p271:32:32-p272:64:64-i64:64-i128:128-f80:128-n8:16:32:64-S128"
target triple = "x86_64-pc-linux-gnu"

%struct._zval_struct = type { %union._zend_value, %union.anon.3, %union.anon.6 }
%union._zend_value = type { i64 }
%union.anon.3 = type { i32 }
%union.anon.6 = type { i32 }
%struct._zend_refcounted_h = type { i32, %union.anon.1 }
%union.anon.1 = type { i32 }
%struct._zend_object = type { %struct._zend_refcounted_h, i32, i32, ptr, ptr, ptr, [1 x %struct._zval_struct] }
%struct._zend_string = type { %struct._zend_refcounted_h, i64, i64, [1 x i8] }
%struct.anon.4 = type { i8, i8, %union.anon.5 }
%union.anon.5 = type { i16 }

@.str.63 = private unnamed_addr constant [12 x i8] c"queryString\00", align 1
@.str.125 = private unnamed_addr constant [34 x i8] c"Property queryString is read only\00", align 1

; Function Attrs: alwaysinline nounwind uwtable
define internal zeroext i8 @zval_get_type(ptr noundef %0) #3 {
  %2 = alloca ptr, align 8
  store ptr %0, ptr %2, align 8, !tbaa !47
  %3 = load ptr, ptr %2, align 8, !tbaa !47
  %4 = getelementptr inbounds nuw %struct._zval_struct, ptr %3, i32 0, i32 1
  %5 = getelementptr inbounds nuw %struct.anon.4, ptr %4, i32 0, i32 0
  %6 = load i8, ptr %5, align 8, !tbaa !45
  ret i8 %6
}

; Function Attrs: alwaysinline nounwind uwtable
define internal zeroext i1 @zend_string_equals_cstr(ptr noundef %0, ptr noundef %1, i64 noundef %2) #3 {
  %4 = alloca ptr, align 8
  %5 = alloca ptr, align 8
  %6 = alloca i64, align 8
  store ptr %0, ptr %4, align 8, !tbaa !39
  store ptr %1, ptr %5, align 8, !tbaa !52
  store i64 %2, ptr %6, align 8, !tbaa !92
  %7 = load ptr, ptr %4, align 8, !tbaa !39
  %8 = getelementptr inbounds nuw %struct._zend_string, ptr %7, i32 0, i32 2
  %9 = load i64, ptr %8, align 8, !tbaa !115
  %10 = load i64, ptr %6, align 8, !tbaa !92
  %11 = icmp eq i64 %9, %10
  br i1 %11, label %12, label %21

12:                                               ; preds = %3
  %13 = load ptr, ptr %4, align 8, !tbaa !39
  %14 = getelementptr inbounds nuw %struct._zend_string, ptr %13, i32 0, i32 3
  %15 = getelementptr inbounds [1 x i8], ptr %14, i64 0, i64 0
  %16 = load ptr, ptr %5, align 8, !tbaa !52
  %17 = load i64, ptr %6, align 8, !tbaa !92
  %18 = call i32 @memcmp(ptr noundef %15, ptr noundef %16, i64 noundef %17) #16
  %19 = icmp ne i32 %18, 0
  %20 = xor i1 %19, true
  br label %21

21:                                               ; preds = %12, %3
  %22 = phi i1 [ false, %3 ], [ %20, %12 ]
  ret i1 %22
}

; Function Attrs: nounwind uwtable
define internal ptr @dbstmt_prop_write(ptr noundef %0, ptr noundef %1, ptr noundef %2, ptr noundef %3) #0 {
  %5 = alloca ptr, align 8
  %6 = alloca ptr, align 8
  %7 = alloca ptr, align 8
  %8 = alloca ptr, align 8
  %9 = alloca ptr, align 8
  %10 = alloca ptr, align 8
  %11 = alloca i32, align 4
  store ptr %0, ptr %6, align 8, !tbaa !108
  store ptr %1, ptr %7, align 8, !tbaa !39
  store ptr %2, ptr %8, align 8, !tbaa !47
  store ptr %3, ptr %9, align 8, !tbaa !133
  %12 = load ptr, ptr %7, align 8, !tbaa !39
  %13 = call zeroext i1 @zend_string_equals_cstr(ptr noundef %12, ptr noundef @.str.63, i64 noundef 11)
  br i1 %13, label %14, label %28

14:                                               ; preds = %4
  call void @llvm.lifetime.start.p0(i64 8, ptr %10) #14
  %15 = load ptr, ptr %6, align 8, !tbaa !108
  %16 = getelementptr inbounds nuw %struct._zend_object, ptr %15, i32 0, i32 6
  %17 = getelementptr inbounds [1 x %struct._zval_struct], ptr %16, i64 0, i64 0
  store ptr %17, ptr %10, align 8, !tbaa !47
  %18 = load ptr, ptr %10, align 8, !tbaa !47
  %19 = call zeroext i8 @zval_get_type(ptr noundef %18)
  %20 = zext i8 %19 to i32
  %21 = icmp eq i32 %20, 0
  br i1 %21, label %24, label %22

22:                                               ; preds = %14
  call void (ptr, ptr, ...) @zend_throw_error(ptr noundef null, ptr noundef @.str.125)
  %23 = load ptr, ptr %8, align 8, !tbaa !47
  store ptr %23, ptr %5, align 8
  store i32 1, ptr %11, align 4
  br label %25

24:                                               ; preds = %14
  store i32 0, ptr %11, align 4
  br label %25

25:                                               ; preds = %24, %22
  call void @llvm.lifetime.end.p0(i64 8, ptr %10) #14
  %26 = load i32, ptr %11, align 4
  switch i32 %26, label %36 [
    i32 0, label %27
    i32 1, label %34
  ]

27:                                               ; preds = %25
  br label %28

28:                                               ; preds = %27, %4
  %29 = load ptr, ptr %6, align 8, !tbaa !108
  %30 = load ptr, ptr %7, align 8, !tbaa !39
  %31 = load ptr, ptr %8, align 8, !tbaa !47
  %32 = load ptr, ptr %9, align 8, !tbaa !133
  %33 = call ptr @zend_std_write_property(ptr noundef %29, ptr noundef %30, ptr noundef %31, ptr noundef %32)
  store ptr %33, ptr %5, align 8
  br label %34

34:                                               ; preds = %28, %25
  %35 = load ptr, ptr %5, align 8
  ret ptr %35

36:                                               ; preds = %25
  unreachable
}