; Function Attrs: nounwind uwtable
define internal ptr @dbstmt_prop_write(ptr noundef %0, ptr noundef %1, ptr noundef %2, ptr noundef %3) #0 {
  %5 = getelementptr inbounds nuw i8, ptr %1, i64 16
  %6 = load i64, ptr %5, align 8, !tbaa !97
  %7 = icmp eq i64 %6, 11
  br i1 %7, label %zend_string_equals_cstr.exit, label %zend_string_equals_cstr.exit.thread

zend_string_equals_cstr.exit:                     ; preds = %4
  %8 = getelementptr inbounds nuw i8, ptr %1, i64 24
  %bcmp.i = tail call i32 @bcmp(ptr noundef nonnull dereferenceable(11) %8, ptr noundef nonnull dereferenceable(11) @.str.63, i64 11)
  %.not.i = icmp eq i32 %bcmp.i, 0
  br i1 %.not.i, label %9, label %zend_string_equals_cstr.exit.thread

9:                                                ; preds = %zend_string_equals_cstr.exit
  %10 = getelementptr inbounds nuw i8, ptr %0, i64 48
  %11 = load i8, ptr %10, align 8, !tbaa !37
  %.not = icmp eq i8 %11, 0
  br i1 %.not, label %zend_string_equals_cstr.exit.thread, label %12

12:                                               ; preds = %9
  tail call void (ptr, ptr, ...) @zend_throw_error(ptr noundef null, ptr noundef nonnull @.str.125) #17
  br label %14

zend_string_equals_cstr.exit.thread:              ; preds = %9, %4, %zend_string_equals_cstr.exit
  %13 = tail call ptr @zend_std_write_property(ptr noundef %0, ptr noundef nonnull %1, ptr noundef %2, ptr noundef %3) #17
  br label %14

14:                                               ; preds = %12, %zend_string_equals_cstr.exit.thread
  %.1 = phi ptr [ %2, %12 ], [ %13, %zend_string_equals_cstr.exit.thread ]
  ret ptr %.1
}